target datalayout = "e-m:e-p270:32:32-p271:32:32-p272:64:64-i64:64-i128:128-f80:128-n8:16:32:64-S128"
target triple = "x86_64-pc-linux-gnu"

%struct.datetkn = type { [11 x i8], i8, i32 }

@deltacache = internal global [25 x ptr] zeroinitializer, align 16

; Function Attrs: nounwind uwtable
define internal ptr @datebsearch(ptr noundef %0, ptr noundef %1, i32 noundef %2) #0 {
  %4 = alloca ptr, align 8
  %5 = alloca ptr, align 8
  %6 = alloca ptr, align 8
  %7 = alloca i32, align 4
  %8 = alloca ptr, align 8
  %9 = alloca ptr, align 8
  %10 = alloca i32, align 4
  %11 = alloca i32, align 4
  store ptr %0, ptr %5, align 8
  store ptr %1, ptr %6, align 8
  store i32 %2, ptr %7, align 4
  %12 = load i32, ptr %7, align 4
  %13 = icmp ugt i32 %12, 0
  br i1 %13, label %14, label %71

14:                                               ; preds = %3
  call void @llvm.lifetime.start.p0(i64 8, ptr %8) #9
  %15 = load ptr, ptr %6, align 8
  %16 = load i32, ptr %7, align 4
  %17 = zext i32 %16 to i64
  %18 = getelementptr inbounds nuw %struct.datetkn, ptr %15, i64 %17
  %19 = getelementptr inbounds %struct.datetkn, ptr %18, i64 -1
  store ptr %19, ptr %8, align 8
  call void @llvm.lifetime.start.p0(i64 8, ptr %9) #9
  call void @llvm.lifetime.start.p0(i64 4, ptr %10) #9
  br label %20

20:                                               ; preds = %66, %14
  %21 = load ptr, ptr %8, align 8
  %22 = load ptr, ptr %6, align 8
  %23 = icmp uge ptr %21, %22
  br i1 %23, label %24, label %67

24:                                               ; preds = %20
  %25 = load ptr, ptr %6, align 8
  %26 = load ptr, ptr %8, align 8
  %27 = load ptr, ptr %6, align 8
  %28 = ptrtoint ptr %26 to i64
  %29 = ptrtoint ptr %27 to i64
  %30 = sub i64 %28, %29
  %31 = sdiv exact i64 %30, 16
  %32 = ashr i64 %31, 1
  %33 = getelementptr inbounds %struct.datetkn, ptr %25, i64 %32
  store ptr %33, ptr %9, align 8
  %34 = load ptr, ptr %5, align 8
  %35 = getelementptr inbounds i8, ptr %34, i64 0
  %36 = load i8, ptr %35, align 1
  %37 = sext i8 %36 to i32
  %38 = load ptr, ptr %9, align 8
  %39 = getelementptr inbounds nuw %struct.datetkn, ptr %38, i32 0, i32 0
  %40 = getelementptr inbounds [11 x i8], ptr %39, i64 0, i64 0
  %41 = load i8, ptr %40, align 4
  %42 = sext i8 %41 to i32
  %43 = sub i32 %37, %42
  store i32 %43, ptr %10, align 4
  %44 = load i32, ptr %10, align 4
  %45 = icmp eq i32 %44, 0
  br i1 %45, label %46, label %57

46:                                               ; preds = %24
  %47 = load ptr, ptr %5, align 8
  %48 = load ptr, ptr %9, align 8
  %49 = getelementptr inbounds nuw %struct.datetkn, ptr %48, i32 0, i32 0
  %50 = getelementptr inbounds [11 x i8], ptr %49, i64 0, i64 0
  %51 = call i32 @strncmp(ptr noundef %47, ptr noundef %50, i64 noundef 10) #10
  store i32 %51, ptr %10, align 4
  %52 = load i32, ptr %10, align 4
  %53 = icmp eq i32 %52, 0
  br i1 %53, label %54, label %56

54:                                               ; preds = %46
  %55 = load ptr, ptr %9, align 8
  store ptr %55, ptr %4, align 8
  store i32 1, ptr %11, align 4
  br label %68

56:                                               ; preds = %46
  br label %57

57:                                               ; preds = %56, %24
  %58 = load i32, ptr %10, align 4
  %59 = icmp slt i32 %58, 0
  br i1 %59, label %60, label %63

60:                                               ; preds = %57
  %61 = load ptr, ptr %9, align 8
  %62 = getelementptr inbounds %struct.datetkn, ptr %61, i64 -1
  store ptr %62, ptr %8, align 8
  br label %66

63:                                               ; preds = %57
  %64 = load ptr, ptr %9, align 8
  %65 = getelementptr inbounds %struct.datetkn, ptr %64, i64 1
  store ptr %65, ptr %6, align 8
  br label %66

66:                                               ; preds = %63, %60
  br label %20, !llvm.loop !3

67:                                               ; preds = %20
  store i32 0, ptr %11, align 4
  br label %68

68:                                               ; preds = %67, %54
  call void @llvm.lifetime.end.p0(i64 4, ptr %10) #9
  call void @llvm.lifetime.end.p0(i64 8, ptr %9) #9
  call void @llvm.lifetime.end.p0(i64 8, ptr %8) #9
  %69 = load i32, ptr %11, align 4
  switch i32 %69, label %74 [
    i32 0, label %70
    i32 1, label %72
  ]

70:                                               ; preds = %68
  br label %71

71:                                               ; preds = %70, %3
  store ptr null, ptr %4, align 8
  br label %72

72:                                               ; preds = %71, %68
  %73 = load ptr, ptr %4, align 8
  ret ptr %73

74:                                               ; preds = %68
  unreachable
}

; Function Attrs: nounwind uwtable
define i32 @DecodeUnits(i32 noundef %0, ptr noundef %1, ptr noundef %2) #0 {
  %4 = alloca i32, align 4
  %5 = alloca ptr, align 8
  %6 = alloca ptr, align 8
  %7 = alloca i32, align 4
  %8 = alloca ptr, align 8
  store i32 %0, ptr %4, align 4
  store ptr %1, ptr %5, align 8
  store ptr %2, ptr %6, align 8
  call void @llvm.lifetime.start.p0(i64 4, ptr %7) #9
  call void @llvm.lifetime.start.p0(i64 8, ptr %8) #9
  %9 = load i32, ptr %4, align 4
  %10 = sext i32 %9 to i64
  %11 = getelementptr inbounds [25 x ptr], ptr @deltacache, i64 0, i64 %10
  %12 = load ptr, ptr %11, align 8
  %13 = icmp ne ptr %12, null
  br i1 %13, label %14, label %29

14:                                               ; preds = %3
  %15 = load ptr, ptr %5, align 8
  %16 = load i32, ptr %4, align 4
  %17 = sext i32 %16 to i64
  %18 = getelementptr inbounds [25 x ptr], ptr @deltacache, i64 0, i64 %17
  %19 = load ptr, ptr %18, align 8
  %20 = getelementptr inbounds nuw %struct.datetkn, ptr %19, i32 0, i32 0
  %21 = getelementptr inbounds [11 x i8], ptr %20, i64 0, i64 0
  %22 = call i32 @strncmp(ptr noundef %15, ptr noundef %21, i64 noundef 10) #10
  %23 = icmp eq i32 %22, 0
  br i1 %23, label %24, label %29

24:                                               ; preds = %14
  %25 = load i32, ptr %4, align 4
  %26 = sext i32 %25 to i64
  %27 = getelementptr inbounds [25 x ptr], ptr @deltacache, i64 0, i64 %26
  %28 = load ptr, ptr %27, align 8
  store ptr %28, ptr %8, align 8
  br label %32

29:                                               ; preds = %14, %3
  %30 = load ptr, ptr %5, align 8
  %31 = call ptr @datebsearch(ptr noundef %30, ptr noundef @deltatktbl, i32 noundef 61)
  store ptr %31, ptr %8, align 8
  br label %32

32:                                               ; preds = %29, %24
  %33 = load ptr, ptr %8, align 8
  %34 = load i32, ptr %4, align 4
  %35 = sext i32 %34 to i64
  %36 = getelementptr inbounds [25 x ptr], ptr @deltacache, i64 0, i64 %35
  store ptr %33, ptr %36, align 8
  %37 = load ptr, ptr %8, align 8
  %38 = icmp eq ptr %37, null
  br i1 %38, label %39, label %41

39:                                               ; preds = %32
  store i32 31, ptr %7, align 4
  %40 = load ptr, ptr %6, align 8
  store i32 0, ptr %40, align 4
  br label %50

41:                                               ; preds = %32
  %42 = load ptr, ptr %8, align 8
  %43 = getelementptr inbounds nuw %struct.datetkn, ptr %42, i32 0, i32 1
  %44 = load i8, ptr %43, align 1
  %45 = sext i8 %44 to i32
  store i32 %45, ptr %7, align 4
  %46 = load ptr, ptr %8, align 8
  %47 = getelementptr inbounds nuw %struct.datetkn, ptr %46, i32 0, i32 2
  %48 = load i32, ptr %47, align 4
  %49 = load ptr, ptr %6, align 8
  store i32 %48, ptr %49, align 4
  br label %50

50:                                               ; preds = %41, %39
  %51 = load i32, ptr %7, align 4
  call void @llvm.lifetime.end.p0(i64 8, ptr %8) #9
  call void @llvm.lifetime.end.p0(i64 4, ptr %7) #9
  ret i32 %51
}