; Function Attrs: nofree nounwind memory(readwrite, inaccessiblemem: none) uwtable
define range(i32 -128, 128) i32 @DecodeUnits(i32 noundef %0, ptr noundef readonly captures(none) %1, ptr noundef writeonly captures(none) %2) local_unnamed_addr #0 {
  %4 = sext i32 %0 to i64
  %5 = getelementptr inbounds [25 x ptr], ptr @deltacache, i64 0, i64 %4
  %6 = load ptr, ptr %5, align 8
  %.not = icmp eq ptr %6, null
  br i1 %.not, label %10, label %7

7:                                                ; preds = %3
  %8 = tail call i32 @strncmp(ptr noundef nonnull dereferenceable(1) %1, ptr noundef nonnull dereferenceable(1) %6, i64 noundef 10) #16
  %9 = icmp eq i32 %8, 0
  br i1 %9, label %.loopexit, label %10

10:                                               ; preds = %7, %3
  %11 = load i8, ptr %1, align 1
  %12 = sext i8 %11 to i32
  br label %13

13:                                               ; preds = %26, %10
  %.02130.i = phi ptr [ getelementptr inbounds nuw (i8, ptr @deltatktbl, i64 960), %10 ], [ %.122.i, %26 ]
  %.02329.i = phi ptr [ @deltatktbl, %10 ], [ %.124.i, %26 ]
  %14 = ptrtoint ptr %.02130.i to i64
  %15 = ptrtoint ptr %.02329.i to i64
  %16 = sub i64 %14, %15
  %17 = ashr i64 %16, 5
  %18 = getelementptr inbounds %struct.datetkn, ptr %.02329.i, i64 %17
  %19 = load i8, ptr %18, align 4
  %20 = sext i8 %19 to i32
  %21 = sub nsw i32 %12, %20
  %22 = icmp eq i32 %21, 0
  br i1 %22, label %23, label %26

23:                                               ; preds = %13
  %24 = tail call i32 @strncmp(ptr noundef nonnull readonly dereferenceable(1) %1, ptr noundef nonnull dereferenceable(1) %18, i64 noundef 10) #16
  %25 = icmp eq i32 %24, 0
  br i1 %25, label %.loopexit, label %26

26:                                               ; preds = %23, %13
  %.019.i = phi i32 [ %24, %23 ], [ %21, %13 ]
  %27 = icmp slt i32 %.019.i, 0
  %28 = getelementptr inbounds i8, ptr %18, i64 -16
  %29 = getelementptr inbounds nuw i8, ptr %18, i64 16
  %.124.i = select i1 %27, ptr %.02329.i, ptr %29
  %.122.i = select i1 %27, ptr %28, ptr %.02130.i
  %.not.not.i = icmp ult ptr %.122.i, %.124.i
  br i1 %.not.not.i, label %datebsearch.exit, label %13, !llvm.loop !3

datebsearch.exit:                                 ; preds = %26
  store ptr null, ptr %5, align 8
  br label %35

.loopexit:                                        ; preds = %23, %7
  %.0.ph = phi ptr [ %6, %7 ], [ %18, %23 ]
  store ptr %.0.ph, ptr %5, align 8
  %30 = getelementptr inbounds nuw i8, ptr %.0.ph, i64 11
  %31 = load i8, ptr %30, align 1
  %32 = sext i8 %31 to i32
  %33 = getelementptr inbounds nuw i8, ptr %.0.ph, i64 12
  %34 = load i32, ptr %33, align 4
  br label %35

35:                                               ; preds = %datebsearch.exit, %.loopexit
  %storemerge = phi i32 [ %34, %.loopexit ], [ 0, %datebsearch.exit ]
  %.012 = phi i32 [ %32, %.loopexit ], [ 31, %datebsearch.exit ]
  store i32 %storemerge, ptr %2, align 4
  ret i32 %.012
}